ccopy_reg
_reconstructor
p0
(ccore.bot
Bot
p1
c__builtin__
object
p2
Ntp3
Rp4
(dp5
S'AI'
p6
g0
(capiai.apiai
ApiAI
p7
g2
Ntp8
Rp9
(dp10
S'_client_access_token'
p11
S'dc85266a8be84c3ca88fbc70528bd157'
p12
sS'_base_url'
p13
S'api.api.ai'
p14
sS'_session_id'
p15
S'40bd1c1c37514d149719d3dde22aaaaf'
p16
sS'_version'
p17
S'20150910'
p18
sbsS'BOSS_NAME'
p19
S'Twan'
p20
sS'BOSS_SEX'
p21
S'Male'
p22
sS'BOSS_AGE'
p23
I15
sb.